	.file	"Temp.c"
	.text
	.def	scanf;	.scl	3;	.type	32;	.endef
	.seh_proc	scanf
scanf:
	pushq	%rbp
	.seh_pushreg	%rbp
	pushq	%rbx
	.seh_pushreg	%rbx
	subq	$56, %rsp
	.seh_stackalloc	56
	leaq	48(%rsp), %rbp
	.seh_setframe	%rbp, 48
	.seh_endprologue
	movq	%rcx, 32(%rbp)
	movq	%rdx, 40(%rbp)
	movq	%r8, 48(%rbp)
	movq	%r9, 56(%rbp)
	leaq	40(%rbp), %rax
	movq	%rax, -16(%rbp)
	movq	-16(%rbp), %rbx
	movl	$0, %ecx
	movq	__imp___acrt_iob_func(%rip), %rax
	call	*%rax
	movq	%rbx, %r8
	movq	32(%rbp), %rdx
	movq	%rax, %rcx
	call	__mingw_vfscanf
	movl	%eax, -4(%rbp)
	movl	-4(%rbp), %eax
	addq	$56, %rsp
	popq	%rbx
	popq	%rbp
	ret
	.seh_endproc
	.def	printf;	.scl	3;	.type	32;	.endef
	.seh_proc	printf
printf:
	pushq	%rbp
	.seh_pushreg	%rbp
	pushq	%rbx
	.seh_pushreg	%rbx
	subq	$56, %rsp
	.seh_stackalloc	56
	leaq	48(%rsp), %rbp
	.seh_setframe	%rbp, 48
	.seh_endprologue
	movq	%rcx, 32(%rbp)
	movq	%rdx, 40(%rbp)
	movq	%r8, 48(%rbp)
	movq	%r9, 56(%rbp)
	leaq	40(%rbp), %rax
	movq	%rax, -16(%rbp)
	movq	-16(%rbp), %rbx
	movl	$1, %ecx
	movq	__imp___acrt_iob_func(%rip), %rax
	call	*%rax
	movq	%rbx, %r8
	movq	32(%rbp), %rdx
	movq	%rax, %rcx
	call	__mingw_vfprintf
	movl	%eax, -4(%rbp)
	movl	-4(%rbp), %eax
	addq	$56, %rsp
	popq	%rbx
	popq	%rbp
	ret
	.seh_endproc
	.def	__main;	.scl	2;	.type	32;	.endef
	.section .rdata,"dr"
.LC0:
	.ascii "Enter Unit: \12\0"
.LC1:
	.ascii "%c\0"
	.align 8
.LC2:
	.ascii "Enter the Temperature in Celsius\12\0"
.LC3:
	.ascii "%f\0"
	.align 8
.LC7:
	.ascii "\12The temp in Farenheit is:%.1f\0"
	.align 8
.LC8:
	.ascii "Enter the Temperature in Farenheit\12\0"
.LC9:
	.ascii "\12The temp in Celcius is: %.1f\0"
	.align 8
.LC10:
	.ascii " %c is incorrect, Enter an Appropiate Unit please.\0"
	.text
	.globl	main
	.def	main;	.scl	2;	.type	32;	.endef
	.seh_proc	main
main:
	pushq	%rbp
	.seh_pushreg	%rbp
	movq	%rsp, %rbp
	.seh_setframe	%rbp, 0
	subq	$48, %rsp
	.seh_stackalloc	48
	.seh_endprologue
	call	__main
	leaq	.LC0(%rip), %rax
	movq	%rax, %rcx
	call	printf
	leaq	-1(%rbp), %rax
	movq	%rax, %rdx
	leaq	.LC1(%rip), %rax
	movq	%rax, %rcx
	call	scanf
	movzbl	-1(%rbp), %eax
	movsbl	%al, %eax
	movl	%eax, %ecx
	movq	__imp_toupper(%rip), %rax
	call	*%rax
	movb	%al, -1(%rbp)
	movzbl	-1(%rbp), %eax
	cmpb	$67, %al
	jne	.L6
	leaq	.LC2(%rip), %rax
	movq	%rax, %rcx
	call	printf
	leaq	-8(%rbp), %rax
	movq	%rax, %rdx
	leaq	.LC3(%rip), %rax
	movq	%rax, %rcx
	call	scanf
	movss	-8(%rbp), %xmm1
	movss	.LC4(%rip), %xmm0
	mulss	%xmm1, %xmm0
	movss	.LC5(%rip), %xmm2
	movaps	%xmm0, %xmm1
	divss	%xmm2, %xmm1
	movss	.LC6(%rip), %xmm0
	addss	%xmm1, %xmm0
	movss	%xmm0, -8(%rbp)
	movss	-8(%rbp), %xmm0
	cvtss2sd	%xmm0, %xmm0
	movq	%xmm0, %rax
	movq	%rax, %rdx
	movq	%rdx, %xmm0
	movapd	%xmm0, %xmm1
	movq	%rax, %rdx
	leaq	.LC7(%rip), %rax
	movq	%rax, %rcx
	call	printf
	jmp	.L7
.L6:
	movzbl	-1(%rbp), %eax
	cmpb	$70, %al
	jne	.L8
	leaq	.LC8(%rip), %rax
	movq	%rax, %rcx
	call	printf
	leaq	-8(%rbp), %rax
	movq	%rax, %rdx
	leaq	.LC3(%rip), %rax
	movq	%rax, %rcx
	call	scanf
	movss	-8(%rbp), %xmm0
	movss	.LC6(%rip), %xmm2
	movaps	%xmm0, %xmm1
	subss	%xmm2, %xmm1
	movss	.LC5(%rip), %xmm0
	mulss	%xmm1, %xmm0
	movss	.LC4(%rip), %xmm1
	divss	%xmm1, %xmm0
	movss	%xmm0, -8(%rbp)
	movss	-8(%rbp), %xmm0
	cvtss2sd	%xmm0, %xmm0
	movq	%xmm0, %rax
	movq	%rax, %rdx
	movq	%rdx, %xmm0
	movapd	%xmm0, %xmm1
	movq	%rax, %rdx
	leaq	.LC9(%rip), %rax
	movq	%rax, %rcx
	call	printf
	jmp	.L7
.L8:
	movzbl	-1(%rbp), %eax
	movsbl	%al, %eax
	movl	%eax, %edx
	leaq	.LC10(%rip), %rax
	movq	%rax, %rcx
	call	printf
.L7:
	movl	$0, %eax
	addq	$48, %rsp
	popq	%rbp
	ret
	.seh_endproc
	.section .rdata,"dr"
	.align 4
.LC4:
	.long	1091567616
	.align 4
.LC5:
	.long	1084227584
	.align 4
.LC6:
	.long	1107296256
	.ident	"GCC: (GNU) 11.2.0"
	.def	__mingw_vfscanf;	.scl	2;	.type	32;	.endef
	.def	__mingw_vfprintf;	.scl	2;	.type	32;	.endef
